target datalayout = "e-m:e-p270:32:32-p271:32:32-p272:64:64-i64:64-i128:128-f80:128-n8:16:32:64-S128"
target triple = "x86_64-pc-linux-gnu"

%struct.Aig_Man_t_ = type { ptr, ptr, ptr, ptr, ptr, ptr, ptr, %struct.Aig_Obj_t_, i32, i32, i32, i32, i32, i32, [7 x i32], i32, ptr, i32, ptr, i32, ptr, i32, i32, i32, ptr, i32, i32, i32, i32, i32, ptr, ptr, i32, ptr, ptr, i32, ptr, ptr, i32, i32, i32, ptr, ptr, ptr, ptr, ptr, ptr, ptr, ptr, ptr, ptr, ptr, ptr, ptr, ptr, i32, ptr, ptr, ptr, ptr, i32, i64, i64, i64, ptr, ptr }
%struct.Aig_Obj_t_ = type { %union.anon, ptr, ptr, i64, i32, i32, %union.anon.0 }
%union.anon = type { ptr }
%union.anon.0 = type { ptr }

; Function Attrs: inlinehint nounwind uwtable
define internal i32 @Aig_ManCoNum(ptr noundef %0) #4 {
  %2 = alloca ptr, align 8
  store ptr %0, ptr %2, align 8, !tbaa !7
  %3 = load ptr, ptr %2, align 8, !tbaa !7
  %4 = getelementptr inbounds nuw %struct.Aig_Man_t_, ptr %3, i32 0, i32 14
  %5 = getelementptr inbounds [7 x i32], ptr %4, i64 0, i64 3
  %6 = load i32, ptr %5, align 4, !tbaa !3
  ret i32 %6
}

; Function Attrs: inlinehint nounwind uwtable
define internal i32 @Aig_ManCiNum(ptr noundef %0) #4 {
  %2 = alloca ptr, align 8
  store ptr %0, ptr %2, align 8, !tbaa !7
  %3 = load ptr, ptr %2, align 8, !tbaa !7
  %4 = getelementptr inbounds nuw %struct.Aig_Man_t_, ptr %3, i32 0, i32 14
  %5 = getelementptr inbounds [7 x i32], ptr %4, i64 0, i64 2
  %6 = load i32, ptr %5, align 8, !tbaa !3
  ret i32 %6
}

; Function Attrs: nounwind uwtable
define void @Aig_ManSetRegNum(ptr noundef %0, i32 noundef %1) #0 {
  %3 = alloca ptr, align 8
  %4 = alloca i32, align 4
  store ptr %0, ptr %3, align 8, !tbaa !7
  store i32 %1, ptr %4, align 4, !tbaa !3
  %5 = load i32, ptr %4, align 4, !tbaa !3
  %6 = load ptr, ptr %3, align 8, !tbaa !7
  %7 = getelementptr inbounds nuw %struct.Aig_Man_t_, ptr %6, i32 0, i32 8
  store i32 %5, ptr %7, align 8, !tbaa !85
  %8 = load ptr, ptr %3, align 8, !tbaa !7
  %9 = call i32 @Aig_ManCiNum(ptr noundef %8)
  %10 = load i32, ptr %4, align 4, !tbaa !3
  %11 = sub nsw i32 %9, %10
  %12 = load ptr, ptr %3, align 8, !tbaa !7
  %13 = getelementptr inbounds nuw %struct.Aig_Man_t_, ptr %12, i32 0, i32 9
  store i32 %11, ptr %13, align 4, !tbaa !84
  %14 = load ptr, ptr %3, align 8, !tbaa !7
  %15 = call i32 @Aig_ManCoNum(ptr noundef %14)
  %16 = load i32, ptr %4, align 4, !tbaa !3
  %17 = sub nsw i32 %15, %16
  %18 = load ptr, ptr %3, align 8, !tbaa !7
  %19 = getelementptr inbounds nuw %struct.Aig_Man_t_, ptr %18, i32 0, i32 10
  store i32 %17, ptr %19, align 8, !tbaa !87
  %20 = load ptr, ptr %3, align 8, !tbaa !7
  call void @Aig_ManSetCioIds(ptr noundef %20)
  ret void
}