; Function Attrs: nounwind uwtable
define void @Aig_ManSetRegNum(ptr noundef initializes((104, 116)) %0, i32 noundef %1) local_unnamed_addr #0 {
  %3 = getelementptr inbounds nuw i8, ptr %0, i64 104
  store i32 %1, ptr %3, align 8, !tbaa !79
  %4 = getelementptr i8, ptr %0, i64 136
  %.val8 = load i32, ptr %4, align 8, !tbaa !35
  %5 = sub nsw i32 %.val8, %1
  %6 = getelementptr inbounds nuw i8, ptr %0, i64 108
  store i32 %5, ptr %6, align 4, !tbaa !81
  %7 = getelementptr i8, ptr %0, i64 140
  %.val = load i32, ptr %7, align 4, !tbaa !35
  %8 = sub nsw i32 %.val, %1
  %9 = getelementptr inbounds nuw i8, ptr %0, i64 112
  store i32 %8, ptr %9, align 8, !tbaa !83
  tail call void @Aig_ManSetCioIds(ptr noundef %0) #19
  ret void
}